target datalayout = "e-m:e-p270:32:32-p271:32:32-p272:64:64-i64:64-i128:128-f80:128-n8:16:32:64-S128"
target triple = "x86_64-pc-linux-gnu"

%class.Sample = type { ptr, ptr, ptr, ptr, ptr, i8, float, float, float, float, float, float, float, float, float, float, float, float, float, i32, i8, i8, i8, ptr, [9 x ptr], ptr, %class.SampleDebugDraw }
%class.SampleDebugDraw = type { %class.DebugDrawGL }
%class.DebugDrawGL = type { %struct.duDebugDraw }
%struct.duDebugDraw = type { ptr }
%struct.dtTileCacheParams = type { [3 x float], float, float, i32, i32, float, float, float, float, i32, i32 }
%class.dtTileCache = type { i32, i32, ptr, ptr, ptr, i32, i32, %struct.dtTileCacheParams, ptr, ptr, ptr, ptr, ptr, [64 x %"struct.dtTileCache::ObstacleRequest"], i32, [64 x i32], i32 }
%"struct.dtTileCache::ObstacleRequest" = type { i32, i32 }
%struct.dtTileCacheObstacle = type { %union.anon.0, [8 x i32], [8 x i32], i16, i8, i8, i8, i8, ptr }
%union.anon.0 = type { %struct.dtObstacleOrientedBox }
%struct.dtObstacleOrientedBox = type { [3 x float], [3 x float], [2 x float] }
%class.Sample_TempObstacles = type <{ %class.Sample, i8, [7 x i8], ptr, ptr, ptr, ptr, float, i32, i32, i32, i32, i32, i32, i32, float, [4 x i8] }>

; Function Attrs: mustprogress nounwind uwtable
define linkonce_odr dso_local noundef ptr @_ZNK11dtTileCache11getObstacleEi(ptr noundef nonnull align 8 dereferenceable(912) %0, i32 noundef %1) #0 comdat align 2 {
  %3 = alloca ptr, align 8
  %4 = alloca i32, align 4
  store ptr %0, ptr %3, align 8
  store i32 %1, ptr %4, align 4
  %5 = load ptr, ptr %3, align 8
  %6 = getelementptr inbounds %class.dtTileCache, ptr %5, i32 0, i32 11
  %7 = load ptr, ptr %6, align 8
  %8 = load i32, ptr %4, align 4
  %9 = sext i32 %8 to i64
  %10 = getelementptr inbounds %struct.dtTileCacheObstacle, ptr %7, i64 %9
  ret ptr %10
}

; Function Attrs: mustprogress nounwind uwtable
define linkonce_odr dso_local noundef i32 @_ZNK11dtTileCache16getObstacleCountEv(ptr noundef nonnull align 8 dereferenceable(912) %0) #0 comdat align 2 {
  %2 = alloca ptr, align 8
  store ptr %0, ptr %2, align 8
  %3 = load ptr, ptr %2, align 8
  %4 = getelementptr inbounds %class.dtTileCache, ptr %3, i32 0, i32 7
  %5 = getelementptr inbounds %struct.dtTileCacheParams, ptr %4, i32 0, i32 10
  %6 = load i32, ptr %5, align 8
  ret i32 %6
}

; Function Attrs: mustprogress uwtable
define dso_local void @_ZN20Sample_TempObstacles21clearAllTempObstaclesEv(ptr noundef nonnull align 8 dereferenceable(276) %0) #5 align 2 {
  %2 = alloca ptr, align 8
  %3 = alloca i32, align 4
  %4 = alloca ptr, align 8
  store ptr %0, ptr %2, align 8
  %5 = load ptr, ptr %2, align 8
  %6 = getelementptr inbounds %class.Sample_TempObstacles, ptr %5, i32 0, i32 6
  %7 = load ptr, ptr %6, align 8
  %8 = icmp ne ptr %7, null
  br i1 %8, label %10, label %9

9:                                                ; preds = %1
  br label %39

10:                                               ; preds = %1
  store i32 0, ptr %3, align 4
  br label %11

11:                                               ; preds = %36, %10
  %12 = load i32, ptr %3, align 4
  %13 = getelementptr inbounds %class.Sample_TempObstacles, ptr %5, i32 0, i32 6
  %14 = load ptr, ptr %13, align 8
  %15 = call noundef i32 @_ZNK11dtTileCache16getObstacleCountEv(ptr noundef nonnull align 8 dereferenceable(912) %14)
  %16 = icmp slt i32 %12, %15
  br i1 %16, label %17, label %39

17:                                               ; preds = %11
  %18 = getelementptr inbounds %class.Sample_TempObstacles, ptr %5, i32 0, i32 6
  %19 = load ptr, ptr %18, align 8
  %20 = load i32, ptr %3, align 4
  %21 = call noundef ptr @_ZNK11dtTileCache11getObstacleEi(ptr noundef nonnull align 8 dereferenceable(912) %19, i32 noundef %20)
  store ptr %21, ptr %4, align 8
  %22 = load ptr, ptr %4, align 8
  %23 = getelementptr inbounds %struct.dtTileCacheObstacle, ptr %22, i32 0, i32 5
  %24 = load i8, ptr %23, align 1
  %25 = zext i8 %24 to i32
  %26 = icmp eq i32 %25, 0
  br i1 %26, label %27, label %28

27:                                               ; preds = %17
  br label %36

28:                                               ; preds = %17
  %29 = getelementptr inbounds %class.Sample_TempObstacles, ptr %5, i32 0, i32 6
  %30 = load ptr, ptr %29, align 8
  %31 = getelementptr inbounds %class.Sample_TempObstacles, ptr %5, i32 0, i32 6
  %32 = load ptr, ptr %31, align 8
  %33 = load ptr, ptr %4, align 8
  %34 = call noundef i32 @_ZNK11dtTileCache14getObstacleRefEPK19dtTileCacheObstacle(ptr noundef nonnull align 8 dereferenceable(912) %32, ptr noundef %33)
  %35 = call noundef i32 @_ZN11dtTileCache14removeObstacleEj(ptr noundef nonnull align 8 dereferenceable(912) %30, i32 noundef %34)
  br label %36

36:                                               ; preds = %28, %27
  %37 = load i32, ptr %3, align 4
  %38 = add nsw i32 %37, 1
  store i32 %38, ptr %3, align 4
  br label %11, !llvm.loop !23

39:                                               ; preds = %11, %9
  ret void
}