; Function Attrs: mustprogress uwtable
define dso_local void @_ZN20Sample_TempObstacles21clearAllTempObstaclesEv(ptr nocapture noundef nonnull readonly align 8 dereferenceable(276) %0) local_unnamed_addr #5 align 2 {
  %2 = getelementptr inbounds i8, ptr %0, i64 232
  %3 = load ptr, ptr %2, align 8
  %.not = icmp eq ptr %3, null
  br i1 %.not, label %.loopexit, label %.preheader

.preheader:                                       ; preds = %1
  %4 = getelementptr inbounds i8, ptr %3, i64 88
  %5 = load i32, ptr %4, align 8
  %6 = icmp sgt i32 %5, 0
  br i1 %6, label %.lr.ph, label %.loopexit

.lr.ph:                                           ; preds = %.preheader, %17
  %7 = phi ptr [ %18, %17 ], [ %3, %.preheader ]
  %indvars.iv = phi i64 [ %indvars.iv.next, %17 ], [ 0, %.preheader ]
  %8 = getelementptr inbounds i8, ptr %7, i64 120
  %9 = load ptr, ptr %8, align 8
  %10 = getelementptr inbounds %struct.dtTileCacheObstacle, ptr %9, i64 %indvars.iv
  %11 = getelementptr inbounds i8, ptr %10, i64 99
  %12 = load i8, ptr %11, align 1
  %13 = icmp eq i8 %12, 0
  br i1 %13, label %17, label %14

14:                                               ; preds = %.lr.ph
  %15 = tail call noundef i32 @_ZNK11dtTileCache14getObstacleRefEPK19dtTileCacheObstacle(ptr noundef nonnull align 8 dereferenceable(912) %7, ptr noundef nonnull %10)
  %16 = tail call noundef i32 @_ZN11dtTileCache14removeObstacleEj(ptr noundef nonnull align 8 dereferenceable(912) %7, i32 noundef %15)
  %.pre = load ptr, ptr %2, align 8
  br label %17

17:                                               ; preds = %.lr.ph, %14
  %18 = phi ptr [ %7, %.lr.ph ], [ %.pre, %14 ]
  %indvars.iv.next = add nuw nsw i64 %indvars.iv, 1
  %19 = getelementptr inbounds i8, ptr %18, i64 88
  %20 = load i32, ptr %19, align 8
  %21 = sext i32 %20 to i64
  %22 = icmp slt i64 %indvars.iv.next, %21
  br i1 %22, label %.lr.ph, label %.loopexit, !llvm.loop !22

.loopexit:                                        ; preds = %17, %.preheader, %1
  ret void
}